target datalayout = "e-m:e-p270:32:32-p271:32:32-p272:64:64-i64:64-i128:128-f80:128-n8:16:32:64-S128"
target triple = "x86_64-pc-linux-gnu"

%struct.LogicalRepWorker = type { i32, i64, i8, i16, ptr, i32, i32, i32, i32, i8, i64, i8, ptr, i32, i8, i64, i64, i64, i64, i64 }
%union.LWLockPadded = type { %struct.LWLock, [112 x i8] }
%struct.LWLock = type { i16, %struct.pg_atomic_uint32, %struct.proclist_head }
%struct.pg_atomic_uint32 = type { i32 }
%struct.proclist_head = type { i32, i32 }
%struct.PGPROC = type { %struct.dlist_node, ptr, ptr, i32, %struct.Latch, i32, i32, i32, i32, %struct.anon, i32, i32, i32, i8, i8, i8, i8, %struct.proclist_node, %struct.proclist_node, ptr, ptr, i32, i32, %struct.pg_atomic_uint64, i32, i8, i64, i32, %struct.dlist_node, [16 x %struct.dlist_head], %struct.XidCacheStatus, %struct.XidCache, i8, %struct.pg_atomic_uint32, i32, i32, i8, %struct.pg_atomic_uint32, i32, i32, i64, i64, %struct.LWLock, ptr, ptr, i8, i32, ptr, %struct.dlist_head, %struct.dlist_node }
%struct.Latch = type { i32, i32, i8, i32 }
%struct.anon = type { i32, i32 }
%struct.proclist_node = type { i32, i32 }
%struct.pg_atomic_uint64 = type { i64 }
%struct.XidCacheStatus = type { i8, i8 }
%struct.XidCache = type { [64 x i32] }
%struct.dlist_head = type { %struct.dlist_node }
%struct.dlist_node = type { ptr, ptr }

@MainLWLockArray = external global ptr, align 8
@InterruptPending = external global i32, align 4
@MyLatch = external global ptr, align 8

; Function Attrs: nounwind uwtable
define internal void @logicalrep_worker_stop_internal(ptr noundef %0, i32 noundef %1) #0 {
  %3 = alloca ptr, align 8
  %4 = alloca i32, align 4
  %5 = alloca i16, align 2
  %6 = alloca i32, align 4
  %7 = alloca i32, align 4
  %8 = alloca i32, align 4
  store ptr %0, ptr %3, align 8
  store i32 %1, ptr %4, align 4
  call void @llvm.lifetime.start.p0(i64 2, ptr %5) #9
  %9 = load ptr, ptr %3, align 8
  %10 = getelementptr inbounds nuw %struct.LogicalRepWorker, ptr %9, i32 0, i32 3
  %11 = load i16, ptr %10, align 2
  store i16 %11, ptr %5, align 2
  br label %12

12:                                               ; preds = %72, %2
  %13 = load ptr, ptr %3, align 8
  %14 = getelementptr inbounds nuw %struct.LogicalRepWorker, ptr %13, i32 0, i32 2
  %15 = load i8, ptr %14, align 8, !range !4, !noundef !5
  %16 = trunc i8 %15 to i1
  br i1 %16, label %17, label %23

17:                                               ; preds = %12
  %18 = load ptr, ptr %3, align 8
  %19 = getelementptr inbounds nuw %struct.LogicalRepWorker, ptr %18, i32 0, i32 4
  %20 = load ptr, ptr %19, align 8
  %21 = icmp ne ptr %20, null
  %22 = xor i1 %21, true
  br label %23

23:                                               ; preds = %17, %12
  %24 = phi i1 [ false, %12 ], [ %22, %17 ]
  br i1 %24, label %25, label %73

25:                                               ; preds = %23
  call void @llvm.lifetime.start.p0(i64 4, ptr %6) #9
  %26 = load ptr, ptr @MainLWLockArray, align 8
  %27 = getelementptr inbounds %union.LWLockPadded, ptr %26, i64 43
  call void @LWLockRelease(ptr noundef %27)
  %28 = load ptr, ptr @MyLatch, align 8
  %29 = call i32 @WaitLatch(ptr noundef %28, i32 noundef 41, i64 noundef 10, i32 noundef 134217734)
  store i32 %29, ptr %6, align 4
  %30 = load i32, ptr %6, align 4
  %31 = and i32 %30, 1
  %32 = icmp ne i32 %31, 0
  br i1 %32, label %33, label %46

33:                                               ; preds = %25
  %34 = load ptr, ptr @MyLatch, align 8
  call void @ResetLatch(ptr noundef %34)
  br label %35

35:                                               ; preds = %33
  %36 = load volatile i32, ptr @InterruptPending, align 4
  %37 = icmp ne i32 %36, 0
  %38 = zext i1 %37 to i32
  %39 = sext i32 %38 to i64
  %40 = call i64 @llvm.expect.i64(i64 %39, i64 0)
  %41 = icmp ne i64 %40, 0
  br i1 %41, label %42, label %43

42:                                               ; preds = %35
  call void @ProcessInterrupts()
  br label %43

43:                                               ; preds = %42, %35
  br label %44

44:                                               ; preds = %43
  br label %45

45:                                               ; preds = %44
  br label %46

46:                                               ; preds = %45, %25
  %47 = load ptr, ptr @MainLWLockArray, align 8
  %48 = getelementptr inbounds %union.LWLockPadded, ptr %47, i64 43
  %49 = call zeroext i1 @LWLockAcquire(ptr noundef %48, i32 noundef 1)
  %50 = load ptr, ptr %3, align 8
  %51 = getelementptr inbounds nuw %struct.LogicalRepWorker, ptr %50, i32 0, i32 2
  %52 = load i8, ptr %51, align 8, !range !4, !noundef !5
  %53 = trunc i8 %52 to i1
  br i1 %53, label %54, label %62

54:                                               ; preds = %46
  %55 = load ptr, ptr %3, align 8
  %56 = getelementptr inbounds nuw %struct.LogicalRepWorker, ptr %55, i32 0, i32 3
  %57 = load i16, ptr %56, align 2
  %58 = zext i16 %57 to i32
  %59 = load i16, ptr %5, align 2
  %60 = zext i16 %59 to i32
  %61 = icmp ne i32 %58, %60
  br i1 %61, label %62, label %63

62:                                               ; preds = %54, %46
  store i32 1, ptr %7, align 4
  br label %70

63:                                               ; preds = %54
  %64 = load ptr, ptr %3, align 8
  %65 = getelementptr inbounds nuw %struct.LogicalRepWorker, ptr %64, i32 0, i32 4
  %66 = load ptr, ptr %65, align 8
  %67 = icmp ne ptr %66, null
  br i1 %67, label %68, label %69

68:                                               ; preds = %63
  store i32 3, ptr %7, align 4
  br label %70

69:                                               ; preds = %63
  store i32 0, ptr %7, align 4
  br label %70

70:                                               ; preds = %69, %68, %62
  call void @llvm.lifetime.end.p0(i64 4, ptr %6) #9
  %71 = load i32, ptr %7, align 4
  switch i32 %71, label %124 [
    i32 0, label %72
    i32 3, label %73
  ]

72:                                               ; preds = %70
  br label %12, !llvm.loop !13

73:                                               ; preds = %70, %23
  %74 = load ptr, ptr %3, align 8
  %75 = getelementptr inbounds nuw %struct.LogicalRepWorker, ptr %74, i32 0, i32 4
  %76 = load ptr, ptr %75, align 8
  %77 = getelementptr inbounds nuw %struct.PGPROC, ptr %76, i32 0, i32 7
  %78 = load i32, ptr %77, align 4
  %79 = load i32, ptr %4, align 4
  %80 = call i32 @kill(i32 noundef %78, i32 noundef %79) #9
  br label %81

81:                                               ; preds = %122, %73
  call void @llvm.lifetime.start.p0(i64 4, ptr %8) #9
  %82 = load ptr, ptr %3, align 8
  %83 = getelementptr inbounds nuw %struct.LogicalRepWorker, ptr %82, i32 0, i32 4
  %84 = load ptr, ptr %83, align 8
  %85 = icmp ne ptr %84, null
  br i1 %85, label %86, label %94

86:                                               ; preds = %81
  %87 = load ptr, ptr %3, align 8
  %88 = getelementptr inbounds nuw %struct.LogicalRepWorker, ptr %87, i32 0, i32 3
  %89 = load i16, ptr %88, align 2
  %90 = zext i16 %89 to i32
  %91 = load i16, ptr %5, align 2
  %92 = zext i16 %91 to i32
  %93 = icmp ne i32 %90, %92
  br i1 %93, label %94, label %95

94:                                               ; preds = %86, %81
  store i32 6, ptr %7, align 4
  br label %120

95:                                               ; preds = %86
  %96 = load ptr, ptr @MainLWLockArray, align 8
  %97 = getelementptr inbounds %union.LWLockPadded, ptr %96, i64 43
  call void @LWLockRelease(ptr noundef %97)
  %98 = load ptr, ptr @MyLatch, align 8
  %99 = call i32 @WaitLatch(ptr noundef %98, i32 noundef 41, i64 noundef 10, i32 noundef 134217733)
  store i32 %99, ptr %8, align 4
  %100 = load i32, ptr %8, align 4
  %101 = and i32 %100, 1
  %102 = icmp ne i32 %101, 0
  br i1 %102, label %103, label %116

103:                                              ; preds = %95
  %104 = load ptr, ptr @MyLatch, align 8
  call void @ResetLatch(ptr noundef %104)
  br label %105

105:                                              ; preds = %103
  %106 = load volatile i32, ptr @InterruptPending, align 4
  %107 = icmp ne i32 %106, 0
  %108 = zext i1 %107 to i32
  %109 = sext i32 %108 to i64
  %110 = call i64 @llvm.expect.i64(i64 %109, i64 0)
  %111 = icmp ne i64 %110, 0
  br i1 %111, label %112, label %113

112:                                              ; preds = %105
  call void @ProcessInterrupts()
  br label %113

113:                                              ; preds = %112, %105
  br label %114

114:                                              ; preds = %113
  br label %115

115:                                              ; preds = %114
  br label %116

116:                                              ; preds = %115, %95
  %117 = load ptr, ptr @MainLWLockArray, align 8
  %118 = getelementptr inbounds %union.LWLockPadded, ptr %117, i64 43
  %119 = call zeroext i1 @LWLockAcquire(ptr noundef %118, i32 noundef 1)
  store i32 0, ptr %7, align 4
  br label %120

120:                                              ; preds = %116, %94
  call void @llvm.lifetime.end.p0(i64 4, ptr %8) #9
  %121 = load i32, ptr %7, align 4
  switch i32 %121, label %127 [
    i32 0, label %122
    i32 6, label %123
  ]

122:                                              ; preds = %120
  br label %81

123:                                              ; preds = %120
  store i32 0, ptr %7, align 4
  br label %124

124:                                              ; preds = %123, %70
  call void @llvm.lifetime.end.p0(i64 2, ptr %5) #9
  %125 = load i32, ptr %7, align 4
  switch i32 %125, label %127 [
    i32 0, label %126
    i32 1, label %126
  ]

126:                                              ; preds = %124, %124
  ret void

127:                                              ; preds = %124, %120
  unreachable
}