; Function Attrs: nounwind uwtable
define internal fastcc void @logicalrep_worker_stop_internal(ptr noundef readonly captures(none) %0, i32 noundef range(i32 2, 16) %1) unnamed_addr #2 {
  %3 = getelementptr inbounds nuw i8, ptr %0, i64 18
  %4 = load i16, ptr %3, align 2
  %5 = getelementptr inbounds nuw i8, ptr %0, i64 16
  %6 = getelementptr inbounds nuw i8, ptr %0, i64 24
  %.pre = load i8, ptr %5, align 8, !range !4
  %.pre34.pre = load ptr, ptr %6, align 8
  %7 = trunc nuw i8 %.pre to i1
  br label %8

8:                                                ; preds = %28, %2
  %.pre34 = phi ptr [ null, %28 ], [ %.pre34.pre, %2 ]
  %9 = phi i1 [ true, %28 ], [ %7, %2 ]
  %.not = icmp eq ptr %.pre34, null
  %or.cond = select i1 %9, i1 %.not, i1 false
  br i1 %or.cond, label %10, label %.critedge

10:                                               ; preds = %8
  %11 = load ptr, ptr @MainLWLockArray, align 8
  %12 = getelementptr inbounds nuw i8, ptr %11, i64 5504
  tail call void @LWLockRelease(ptr noundef nonnull %12) #13
  %13 = load ptr, ptr @MyLatch, align 8
  %14 = tail call i32 @WaitLatch(ptr noundef %13, i32 noundef 41, i64 noundef 10, i32 noundef 134217734) #13
  %15 = and i32 %14, 1
  %.not15 = icmp eq i32 %15, 0
  br i1 %.not15, label %20, label %16

16:                                               ; preds = %10
  %17 = load ptr, ptr @MyLatch, align 8
  tail call void @ResetLatch(ptr noundef %17) #13
  %18 = load volatile i32, ptr @InterruptPending, align 4
  %.not16 = icmp eq i32 %18, 0
  br i1 %.not16, label %20, label %19, !prof !13

19:                                               ; preds = %16
  tail call void @ProcessInterrupts() #13
  br label %20

20:                                               ; preds = %16, %19, %10
  %21 = load ptr, ptr @MainLWLockArray, align 8
  %22 = getelementptr inbounds nuw i8, ptr %21, i64 5504
  %23 = tail call zeroext i1 @LWLockAcquire(ptr noundef nonnull %22, i32 noundef 1) #13
  %24 = load i8, ptr %5, align 8, !range !4, !noundef !5
  %25 = trunc nuw i8 %24 to i1
  br i1 %25, label %26, label %.thread

26:                                               ; preds = %20
  %27 = load i16, ptr %3, align 2
  %.not17 = icmp eq i16 %27, %4
  br i1 %.not17, label %28, label %.thread

28:                                               ; preds = %26
  %29 = load ptr, ptr %6, align 8
  %.not18 = icmp eq ptr %29, null
  br i1 %.not18, label %8, label %.critedge

.critedge:                                        ; preds = %28, %8
  %30 = phi ptr [ %29, %28 ], [ %.pre34, %8 ]
  %31 = getelementptr inbounds nuw i8, ptr %30, i64 60
  %32 = load i32, ptr %31, align 4
  %33 = tail call i32 @kill(i32 noundef %32, i32 noundef %1) #13
  %34 = load ptr, ptr %6, align 8
  %.not1931 = icmp eq ptr %34, null
  br i1 %.not1931, label %.thread, label %.lr.ph

.lr.ph:                                           ; preds = %.critedge, %46
  %35 = load i16, ptr %3, align 2
  %.not20 = icmp eq i16 %35, %4
  br i1 %.not20, label %36, label %.thread

36:                                               ; preds = %.lr.ph
  %37 = load ptr, ptr @MainLWLockArray, align 8
  %38 = getelementptr inbounds nuw i8, ptr %37, i64 5504
  tail call void @LWLockRelease(ptr noundef nonnull %38) #13
  %39 = load ptr, ptr @MyLatch, align 8
  %40 = tail call i32 @WaitLatch(ptr noundef %39, i32 noundef 41, i64 noundef 10, i32 noundef 134217733) #13
  %41 = and i32 %40, 1
  %.not21 = icmp eq i32 %41, 0
  br i1 %.not21, label %46, label %42

42:                                               ; preds = %36
  %43 = load ptr, ptr @MyLatch, align 8
  tail call void @ResetLatch(ptr noundef %43) #13
  %44 = load volatile i32, ptr @InterruptPending, align 4
  %.not22 = icmp eq i32 %44, 0
  br i1 %.not22, label %46, label %45, !prof !13

45:                                               ; preds = %42
  tail call void @ProcessInterrupts() #13
  br label %46

46:                                               ; preds = %36, %45, %42
  %47 = load ptr, ptr @MainLWLockArray, align 8
  %48 = getelementptr inbounds nuw i8, ptr %47, i64 5504
  %49 = tail call zeroext i1 @LWLockAcquire(ptr noundef nonnull %48, i32 noundef 1) #13
  %50 = load ptr, ptr %6, align 8
  %.not19 = icmp eq ptr %50, null
  br i1 %.not19, label %.thread, label %.lr.ph

.thread:                                          ; preds = %20, %26, %.lr.ph, %46, %.critedge
  ret void
}